target datalayout = "e-m:e-p270:32:32-p271:32:32-p272:64:64-i64:64-i128:128-f80:128-n8:16:32:64-S128"
target triple = "x86_64-pc-linux-gnu"

%"struct.Luau::Location" = type { %"struct.Luau::Position", %"struct.Luau::Position" }
%"struct.Luau::Position" = type { i32, i32 }
%"struct.Luau::Lexeme" = type { i32, %"struct.Luau::Location", i32, %union.anon.24 }
%union.anon.24 = type { ptr }
%"class.std::optional.258" = type { %"struct.std::_Optional_base.259" }
%"struct.std::_Optional_base.259" = type { %"struct.std::_Optional_payload.261" }
%"struct.std::_Optional_payload.261" = type { %"struct.std::_Optional_payload_base.base.263", [3 x i8] }
%"struct.std::_Optional_payload_base.base.263" = type <{ %"union.std::_Optional_payload_base<Luau::AstExprUnary::Op>::_Storage", i8 }>
%"union.std::_Optional_payload_base<Luau::AstExprUnary::Op>::_Storage" = type { i32 }
%"struct.std::_Optional_payload_base.262" = type <{ %"union.std::_Optional_payload_base<Luau::AstExprUnary::Op>::_Storage", i8, [3 x i8] }>

; Function Attrs: mustprogress nounwind uwtable
define linkonce_odr dso_local void @_ZNSt22_Optional_payload_baseIN4Luau12AstExprUnary2OpEE8_StorageIS2_Lb1EEC2Ev(ptr noundef nonnull align 4 dereferenceable(4) %0) unnamed_addr #2 comdat align 2 {
  %2 = alloca ptr, align 8
  store ptr %0, ptr %2, align 8, !tbaa !1372
  ret void
}

; Function Attrs: mustprogress nounwind uwtable
define linkonce_odr dso_local void @_ZNSt22_Optional_payload_baseIN4Luau12AstExprUnary2OpEE8_StorageIS2_Lb1EEC2IJS2_EEESt10in_place_tDpOT_(ptr noundef nonnull align 4 dereferenceable(4) %0, ptr noundef nonnull align 4 dereferenceable(4) %1) unnamed_addr #2 comdat align 2 {
  %3 = alloca ptr, align 8
  %4 = alloca ptr, align 8
  store ptr %0, ptr %3, align 8, !tbaa !1372
  store ptr %1, ptr %4, align 8, !tbaa !567
  %5 = load ptr, ptr %3, align 8
  %6 = load ptr, ptr %4, align 8, !tbaa !567
  %7 = load i32, ptr %6, align 4, !tbaa !803
  store i32 %7, ptr %5, align 4, !tbaa !47
  ret void
}

; Function Attrs: mustprogress nounwind uwtable
define linkonce_odr dso_local void @_ZNSt22_Optional_payload_baseIN4Luau12AstExprUnary2OpEEC2Ev(ptr noundef nonnull align 4 dereferenceable(5) %0) unnamed_addr #2 comdat align 2 {
  %2 = alloca ptr, align 8
  store ptr %0, ptr %2, align 8, !tbaa !1368
  %3 = load ptr, ptr %2, align 8
  %4 = getelementptr inbounds nuw %"struct.std::_Optional_payload_base.262", ptr %3, i32 0, i32 0
  call void @_ZNSt22_Optional_payload_baseIN4Luau12AstExprUnary2OpEE8_StorageIS2_Lb1EEC2Ev(ptr noundef nonnull align 4 dereferenceable(4) %4) #23
  %5 = getelementptr inbounds nuw %"struct.std::_Optional_payload_base.262", ptr %3, i32 0, i32 1
  store i8 0, ptr %5, align 4, !tbaa !1370
  ret void
}

; Function Attrs: mustprogress uwtable
define linkonce_odr dso_local void @_ZNSt22_Optional_payload_baseIN4Luau12AstExprUnary2OpEEC2IJS2_EEESt10in_place_tDpOT_(ptr noundef nonnull align 4 dereferenceable(5) %0, ptr noundef nonnull align 4 dereferenceable(4) %1) unnamed_addr #3 comdat align 2 {
  %3 = alloca ptr, align 8
  %4 = alloca ptr, align 8
  store ptr %0, ptr %3, align 8, !tbaa !1368
  store ptr %1, ptr %4, align 8, !tbaa !567
  %5 = load ptr, ptr %3, align 8
  %6 = getelementptr inbounds nuw %"struct.std::_Optional_payload_base.262", ptr %5, i32 0, i32 0
  %7 = load ptr, ptr %4, align 8, !tbaa !567
  call void @_ZNSt22_Optional_payload_baseIN4Luau12AstExprUnary2OpEE8_StorageIS2_Lb1EEC2IJS2_EEESt10in_place_tDpOT_(ptr noundef nonnull align 4 dereferenceable(4) %6, ptr noundef nonnull align 4 dereferenceable(4) %7)
  %8 = getelementptr inbounds nuw %"struct.std::_Optional_payload_base.262", ptr %5, i32 0, i32 1
  store i8 1, ptr %8, align 4, !tbaa !1370
  ret void
}

; Function Attrs: mustprogress nounwind uwtable
define linkonce_odr dso_local void @_ZNSt17_Optional_payloadIN4Luau12AstExprUnary2OpELb1ELb1ELb1EEC2Ev(ptr noundef nonnull align 4 dereferenceable(5) %0) unnamed_addr #2 comdat align 2 {
  %2 = alloca ptr, align 8
  store ptr %0, ptr %2, align 8, !tbaa !1366
  %3 = load ptr, ptr %2, align 8
  call void @_ZNSt22_Optional_payload_baseIN4Luau12AstExprUnary2OpEEC2Ev(ptr noundef nonnull align 4 dereferenceable(5) %3) #23
  ret void
}

; Function Attrs: inlinehint mustprogress uwtable
define linkonce_odr dso_local void @_ZNSt17_Optional_payloadIN4Luau12AstExprUnary2OpELb1ELb1ELb1EECI2St22_Optional_payload_baseIS2_EIJS2_EEESt10in_place_tDpOT_(ptr noundef nonnull align 4 dereferenceable(5) %0, ptr noundef nonnull align 4 dereferenceable(4) %1) unnamed_addr #10 comdat align 2 {
  %3 = alloca ptr, align 8
  %4 = alloca ptr, align 8
  store ptr %0, ptr %3, align 8, !tbaa !1366
  store ptr %1, ptr %4, align 8, !tbaa !567
  %5 = load ptr, ptr %3, align 8
  %6 = load ptr, ptr %4, align 8
  call void @_ZNSt22_Optional_payload_baseIN4Luau12AstExprUnary2OpEEC2IJS2_EEESt10in_place_tDpOT_(ptr noundef nonnull align 4 dereferenceable(5) %5, ptr noundef nonnull align 4 dereferenceable(4) %6)
  ret void
}

; Function Attrs: mustprogress nounwind uwtable
define linkonce_odr dso_local void @_ZNSt14_Optional_baseIN4Luau12AstExprUnary2OpELb1ELb1EEC2Ev(ptr noundef nonnull align 4 dereferenceable(8) %0) unnamed_addr #2 comdat align 2 {
  %2 = alloca ptr, align 8
  store ptr %0, ptr %2, align 8, !tbaa !1364
  %3 = load ptr, ptr %2, align 8
  %4 = getelementptr inbounds nuw %"struct.std::_Optional_base.259", ptr %3, i32 0, i32 0
  call void @_ZNSt17_Optional_payloadIN4Luau12AstExprUnary2OpELb1ELb1ELb1EEC2Ev(ptr noundef nonnull align 4 dereferenceable(5) %4) #23
  ret void
}

; Function Attrs: noinline noreturn nounwind uwtable
define linkonce_odr hidden void @__clang_call_terminate(ptr noundef %0) #13 comdat {
  %2 = call ptr @__cxa_begin_catch(ptr %0) #23
  call void @_ZSt9terminatev() #24
  unreachable
}

; Function Attrs: mustprogress uwtable
define linkonce_odr dso_local void @_ZNSt14_Optional_baseIN4Luau12AstExprUnary2OpELb1ELb1EEC2IJS2_ETnNSt9enable_ifIX18is_constructible_vIS2_DpT_EEbE4typeELb0EEESt10in_place_tDpOS6_(ptr noundef nonnull align 4 dereferenceable(8) %0, ptr noundef nonnull align 4 dereferenceable(4) %1) unnamed_addr #3 comdat align 2 {
  %3 = alloca ptr, align 8
  %4 = alloca ptr, align 8
  store ptr %0, ptr %3, align 8, !tbaa !1364
  store ptr %1, ptr %4, align 8, !tbaa !567
  %5 = load ptr, ptr %3, align 8
  %6 = getelementptr inbounds nuw %"struct.std::_Optional_base.259", ptr %5, i32 0, i32 0
  %7 = load ptr, ptr %4, align 8, !tbaa !567
  call void @_ZNSt17_Optional_payloadIN4Luau12AstExprUnary2OpELb1ELb1ELb1EECI2St22_Optional_payload_baseIS2_EIJS2_EEESt10in_place_tDpOT_(ptr noundef nonnull align 4 dereferenceable(5) %6, ptr noundef nonnull align 4 dereferenceable(4) %7)
  ret void
}

; Function Attrs: mustprogress nounwind uwtable
define linkonce_odr dso_local void @_ZNSt8optionalIN4Luau12AstExprUnary2OpEEC2ESt9nullopt_t(ptr noundef nonnull align 4 dereferenceable(8) %0) unnamed_addr #2 comdat align 2 {
  %2 = alloca ptr, align 8
  store ptr %0, ptr %2, align 8, !tbaa !805
  %3 = load ptr, ptr %2, align 8
  call void @_ZNSt14_Optional_baseIN4Luau12AstExprUnary2OpELb1ELb1EEC2Ev(ptr noundef nonnull align 4 dereferenceable(8) %3) #23
  ret void
}

; Function Attrs: mustprogress nounwind uwtable
define linkonce_odr dso_local void @_ZNSt8optionalIN4Luau12AstExprUnary2OpEEC2IS2_TnNSt9enable_ifIX7__and_vISt6__not_ISt7is_sameIS3_NSt9remove_cvINSt16remove_referenceIT_E4typeEE4typeEEES6_IS7_ISt10in_place_tSE_EESt16is_constructibleIS2_JSA_EESt14is_convertibleISA_S2_EEEbE4typeELb1EEEOSA_(ptr noundef nonnull align 4 dereferenceable(8) %0, ptr noundef nonnull align 4 dereferenceable(4) %1) unnamed_addr #2 comdat align 2 personality ptr @__gxx_personality_v0 {
  %3 = alloca ptr, align 8
  %4 = alloca ptr, align 8
  store ptr %0, ptr %3, align 8, !tbaa !805
  store ptr %1, ptr %4, align 8, !tbaa !567
  %5 = load ptr, ptr %3, align 8
  %6 = load ptr, ptr %4, align 8, !tbaa !567
  invoke void @_ZNSt14_Optional_baseIN4Luau12AstExprUnary2OpELb1ELb1EEC2IJS2_ETnNSt9enable_ifIX18is_constructible_vIS2_DpT_EEbE4typeELb0EEESt10in_place_tDpOS6_(ptr noundef nonnull align 4 dereferenceable(8) %5, ptr noundef nonnull align 4 dereferenceable(4) %6)
          to label %7 unwind label %8

7:                                                ; preds = %2
  ret void

8:                                                ; preds = %2
  %9 = landingpad { ptr, i32 }
          catch ptr null
  %10 = extractvalue { ptr, i32 } %9, 0
  call void @__clang_call_terminate(ptr %10) #24
  unreachable
}

; Function Attrs: mustprogress nounwind uwtable
define dso_local i64 @_ZN4Luau6Parser12parseUnaryOpERKNS_6LexemeE(ptr noundef nonnull align 8 dereferenceable(32) %0) #2 align 2 {
  %2 = alloca %"class.std::optional.258", align 4
  %3 = alloca ptr, align 8
  %4 = alloca i32, align 4
  %5 = alloca i32, align 4
  %6 = alloca i32, align 4
  store ptr %0, ptr %3, align 8, !tbaa !245
  %7 = load ptr, ptr %3, align 8, !tbaa !245
  %8 = getelementptr inbounds nuw %"struct.Luau::Lexeme", ptr %7, i32 0, i32 0
  %9 = load i32, ptr %8, align 8, !tbaa !87
  %10 = icmp eq i32 %9, 303
  br i1 %10, label %11, label %12

11:                                               ; preds = %1
  call void @llvm.lifetime.start.p0(i64 4, ptr %4) #23
  store i32 0, ptr %4, align 4, !tbaa !803
  call void @_ZNSt8optionalIN4Luau12AstExprUnary2OpEEC2IS2_TnNSt9enable_ifIX7__and_vISt6__not_ISt7is_sameIS3_NSt9remove_cvINSt16remove_referenceIT_E4typeEE4typeEEES6_IS7_ISt10in_place_tSE_EESt16is_constructibleIS2_JSA_EESt14is_convertibleISA_S2_EEEbE4typeELb1EEEOSA_(ptr noundef nonnull align 4 dereferenceable(8) %2, ptr noundef nonnull align 4 dereferenceable(4) %4) #23
  call void @llvm.lifetime.end.p0(i64 4, ptr %4) #23
  br label %25

12:                                               ; preds = %1
  %13 = load ptr, ptr %3, align 8, !tbaa !245
  %14 = getelementptr inbounds nuw %"struct.Luau::Lexeme", ptr %13, i32 0, i32 0
  %15 = load i32, ptr %14, align 8, !tbaa !87
  %16 = icmp eq i32 %15, 45
  br i1 %16, label %17, label %18

17:                                               ; preds = %12
  call void @llvm.lifetime.start.p0(i64 4, ptr %5) #23
  store i32 1, ptr %5, align 4, !tbaa !803
  call void @_ZNSt8optionalIN4Luau12AstExprUnary2OpEEC2IS2_TnNSt9enable_ifIX7__and_vISt6__not_ISt7is_sameIS3_NSt9remove_cvINSt16remove_referenceIT_E4typeEE4typeEEES6_IS7_ISt10in_place_tSE_EESt16is_constructibleIS2_JSA_EESt14is_convertibleISA_S2_EEEbE4typeELb1EEEOSA_(ptr noundef nonnull align 4 dereferenceable(8) %2, ptr noundef nonnull align 4 dereferenceable(4) %5) #23
  call void @llvm.lifetime.end.p0(i64 4, ptr %5) #23
  br label %25

18:                                               ; preds = %12
  %19 = load ptr, ptr %3, align 8, !tbaa !245
  %20 = getelementptr inbounds nuw %"struct.Luau::Lexeme", ptr %19, i32 0, i32 0
  %21 = load i32, ptr %20, align 8, !tbaa !87
  %22 = icmp eq i32 %21, 35
  br i1 %22, label %23, label %24

23:                                               ; preds = %18
  call void @llvm.lifetime.start.p0(i64 4, ptr %6) #23
  store i32 2, ptr %6, align 4, !tbaa !803
  call void @_ZNSt8optionalIN4Luau12AstExprUnary2OpEEC2IS2_TnNSt9enable_ifIX7__and_vISt6__not_ISt7is_sameIS3_NSt9remove_cvINSt16remove_referenceIT_E4typeEE4typeEEES6_IS7_ISt10in_place_tSE_EESt16is_constructibleIS2_JSA_EESt14is_convertibleISA_S2_EEEbE4typeELb1EEEOSA_(ptr noundef nonnull align 4 dereferenceable(8) %2, ptr noundef nonnull align 4 dereferenceable(4) %6) #23
  call void @llvm.lifetime.end.p0(i64 4, ptr %6) #23
  br label %25

24:                                               ; preds = %18
  call void @_ZNSt8optionalIN4Luau12AstExprUnary2OpEEC2ESt9nullopt_t(ptr noundef nonnull align 4 dereferenceable(8) %2) #23
  br label %25

25:                                               ; preds = %24, %23, %17, %11
  %26 = getelementptr inbounds nuw %"class.std::optional.258", ptr %2, i32 0, i32 0
  %27 = getelementptr inbounds nuw %"struct.std::_Optional_base.259", ptr %26, i32 0, i32 0
  %28 = load i64, ptr %27, align 4
  ret i64 %28
}