; Function Attrs: mustprogress nofree norecurse nosync nounwind willreturn memory(argmem: read) uwtable
define dso_local range(i64 0, 4294967300) i64 @_ZN4Luau6Parser12parseUnaryOpERKNS_6LexemeE(ptr noundef nonnull readonly align 8 captures(none) dereferenceable(32) %0) local_unnamed_addr #5 align 2 personality ptr @__gxx_personality_v0 {
  %2 = load i32, ptr %0, align 8, !tbaa !79
  switch i32 %2, label %5 [
    i32 303, label %6
    i32 45, label %3
    i32 35, label %4
  ]

3:                                                ; preds = %1
  br label %6

4:                                                ; preds = %1
  br label %6

5:                                                ; preds = %1
  br label %6

6:                                                ; preds = %1, %5, %4, %3
  %.sroa.0.0 = phi i64 [ 0, %5 ], [ 2, %4 ], [ 1, %3 ], [ 0, %1 ]
  %.sroa.4.0 = phi i64 [ 0, %5 ], [ 4294967296, %4 ], [ 4294967296, %3 ], [ 4294967296, %1 ]
  %.sroa.0.0.insert.insert = or disjoint i64 %.sroa.4.0, %.sroa.0.0
  ret i64 %.sroa.0.0.insert.insert
}